; ModuleID = '50/266.c'
source_filename = "50/266.c"
target datalayout = "e-m:e-p270:32:32-p271:32:32-p272:64:64-i64:64-f80:128-n8:16:32:64-S128"
target triple = "x86_64-pc-linux-gnu"

@__const.main.mouth = private unnamed_addr constant [13 x i32] [i32 0, i32 31, i32 28, i32 31, i32 30, i32 31, i32 30, i32 31, i32 31, i32 30, i32 31, i32 30, i32 31], align 16
@.str = private unnamed_addr constant [3 x i8] c"%d\00", align 1
@.str.1 = private unnamed_addr constant [4 x i8] c"%d\0A\00", align 1

; Function Attrs: noinline nounwind uwtable
define dso_local void @main() #0 {
  %1 = alloca i32, align 4
  %2 = alloca i32, align 4
  %3 = alloca [12 x i32], align 16
  %4 = alloca [13 x i32], align 16
  %5 = alloca i32, align 4
  %6 = alloca i32, align 4
  %7 = alloca i32, align 4
  %8 = alloca [100 x i32], align 16
  %9 = alloca i32*, align 8
  store i32 0, i32* %2, align 4
  %10 = bitcast [13 x i32]* %4 to i8*
  call void @llvm.memcpy.p0i8.p0i8.i64(i8* align 16 %10, i8* align 16 bitcast ([13 x i32]* @__const.main.mouth to i8*), i64 52, i1 false)
  %11 = call i32 (i8*, ...) @__isoc99_scanf(i8* getelementptr inbounds ([3 x i8], [3 x i8]* @.str, i64 0, i64 0), i32* %1)
  %12 = getelementptr inbounds [12 x i32], [12 x i32]* %3, i64 0, i64 0
  store i32* %12, i32** %9, align 8
  %13 = load i32, i32* %1, align 4
  %14 = sub nsw i32 6, %13
  %15 = icmp sgt i32 %14, 0
  br i1 %15, label %16, label %20

16:                                               ; preds = %0
  %17 = load i32, i32* %1, align 4
  %18 = sub nsw i32 6, %17
  %19 = getelementptr inbounds [100 x i32], [100 x i32]* %8, i64 0, i64 0
  store i32 %18, i32* %19, align 16
  br label %24

20:                                               ; preds = %0
  %21 = load i32, i32* %1, align 4
  %22 = sub nsw i32 13, %21
  %23 = getelementptr inbounds [100 x i32], [100 x i32]* %8, i64 0, i64 0
  store i32 %22, i32* %23, align 16
  br label %24

24:                                               ; preds = %20, %16
  store i32 0, i32* %5, align 4
  store i32 0, i32* %7, align 4
  br label %25

25:                                               ; preds = %31, %24
  %26 = load i32, i32* %5, align 4
  %27 = sext i32 %26 to i64
  %28 = getelementptr inbounds [100 x i32], [100 x i32]* %8, i64 0, i64 %27
  %29 = load i32, i32* %28, align 4
  %30 = icmp sle i32 %29, 365
  br i1 %30, label %31, label %45

31:                                               ; preds = %25
  %32 = load i32, i32* %5, align 4
  %33 = sext i32 %32 to i64
  %34 = getelementptr inbounds [100 x i32], [100 x i32]* %8, i64 0, i64 %33
  %35 = load i32, i32* %34, align 4
  %36 = add nsw i32 %35, 7
  %37 = load i32, i32* %5, align 4
  %38 = add nsw i32 %37, 1
  %39 = sext i32 %38 to i64
  %40 = getelementptr inbounds [100 x i32], [100 x i32]* %8, i64 0, i64 %39
  store i32 %36, i32* %40, align 4
  %41 = load i32, i32* %5, align 4
  %42 = add nsw i32 %41, 1
  store i32 %42, i32* %5, align 4
  %43 = load i32, i32* %7, align 4
  %44 = add nsw i32 %43, 1
  store i32 %44, i32* %7, align 4
  br label %25

45:                                               ; preds = %25
  store i32 0, i32* %5, align 4
  br label %46

46:                                               ; preds = %102, %45
  %47 = load i32, i32* %5, align 4
  %48 = load i32, i32* %7, align 4
  %49 = icmp sle i32 %47, %48
  br i1 %49, label %50, label %105

50:                                               ; preds = %46
  store i32 0, i32* %6, align 4
  br label %51

51:                                               ; preds = %98, %50
  %52 = load i32, i32* %6, align 4
  %53 = icmp slt i32 %52, 13
  br i1 %53, label %54, label %101

54:                                               ; preds = %51
  %55 = load i32, i32* %5, align 4
  %56 = sext i32 %55 to i64
  %57 = getelementptr inbounds [100 x i32], [100 x i32]* %8, i64 0, i64 %56
  %58 = load i32, i32* %57, align 4
  %59 = load i32, i32* %6, align 4
  %60 = sext i32 %59 to i64
  %61 = getelementptr inbounds [13 x i32], [13 x i32]* %4, i64 0, i64 %60
  %62 = load i32, i32* %61, align 4
  %63 = sub nsw i32 %58, %62
  %64 = icmp eq i32 %63, 13
  br i1 %64, label %65, label %84

65:                                               ; preds = %54
  %66 = load i32, i32* %5, align 4
  %67 = sext i32 %66 to i64
  %68 = getelementptr inbounds [100 x i32], [100 x i32]* %8, i64 0, i64 %67
  %69 = load i32, i32* %68, align 4
  %70 = load i32, i32* %6, align 4
  %71 = sext i32 %70 to i64
  %72 = getelementptr inbounds [13 x i32], [13 x i32]* %4, i64 0, i64 %71
  %73 = load i32, i32* %72, align 4
  %74 = sub nsw i32 %69, %73
  %75 = load i32, i32* %5, align 4
  %76 = sext i32 %75 to i64
  %77 = getelementptr inbounds [100 x i32], [100 x i32]* %8, i64 0, i64 %76
  store i32 %74, i32* %77, align 4
  %78 = load i32, i32* %6, align 4
  %79 = add nsw i32 %78, 1
  %80 = load i32*, i32** %9, align 8
  %81 = getelementptr inbounds i32, i32* %80, i32 1
  store i32* %81, i32** %9, align 8
  store i32 %79, i32* %80, align 4
  %82 = load i32, i32* %2, align 4
  %83 = add nsw i32 %82, 1
  store i32 %83, i32* %2, align 4
  br label %97

84:                                               ; preds = %54
  %85 = load i32, i32* %5, align 4
  %86 = sext i32 %85 to i64
  %87 = getelementptr inbounds [100 x i32], [100 x i32]* %8, i64 0, i64 %86
  %88 = load i32, i32* %87, align 4
  %89 = load i32, i32* %6, align 4
  %90 = sext i32 %89 to i64
  %91 = getelementptr inbounds [13 x i32], [13 x i32]* %4, i64 0, i64 %90
  %92 = load i32, i32* %91, align 4
  %93 = sub nsw i32 %88, %92
  %94 = load i32, i32* %5, align 4
  %95 = sext i32 %94 to i64
  %96 = getelementptr inbounds [100 x i32], [100 x i32]* %8, i64 0, i64 %95
  store i32 %93, i32* %96, align 4
  br label %97

97:                                               ; preds = %84, %65
  br label %98

98:                                               ; preds = %97
  %99 = load i32, i32* %6, align 4
  %100 = add nsw i32 %99, 1
  store i32 %100, i32* %6, align 4
  br label %51

101:                                              ; preds = %51
  br label %102

102:                                              ; preds = %101
  %103 = load i32, i32* %5, align 4
  %104 = add nsw i32 %103, 1
  store i32 %104, i32* %5, align 4
  br label %46

105:                                              ; preds = %46
  store i32 0, i32* %5, align 4
  br label %106

106:                                              ; preds = %117, %105
  %107 = load i32, i32* %5, align 4
  %108 = load i32, i32* %2, align 4
  %109 = sub nsw i32 %108, 1
  %110 = icmp slt i32 %107, %109
  br i1 %110, label %111, label %120

111:                                              ; preds = %106
  %112 = load i32, i32* %5, align 4
  %113 = sext i32 %112 to i64
  %114 = getelementptr inbounds [12 x i32], [12 x i32]* %3, i64 0, i64 %113
  %115 = load i32, i32* %114, align 4
  %116 = call i32 (i8*, ...) @printf(i8* getelementptr inbounds ([4 x i8], [4 x i8]* @.str.1, i64 0, i64 0), i32 %115)
  br label %117

117:                                              ; preds = %111
  %118 = load i32, i32* %5, align 4
  %119 = add nsw i32 %118, 1
  store i32 %119, i32* %5, align 4
  br label %106

120:                                              ; preds = %106
  %121 = load i32, i32* %2, align 4
  %122 = sub nsw i32 %121, 1
  %123 = sext i32 %122 to i64
  %124 = getelementptr inbounds [12 x i32], [12 x i32]* %3, i64 0, i64 %123
  %125 = load i32, i32* %124, align 4
  %126 = call i32 (i8*, ...) @printf(i8* getelementptr inbounds ([4 x i8], [4 x i8]* @.str.1, i64 0, i64 0), i32 %125)
  ret void
}

; Function Attrs: argmemonly nounwind willreturn
declare void @llvm.memcpy.p0i8.p0i8.i64(i8* noalias nocapture writeonly, i8* noalias nocapture readonly, i64, i1 immarg) #1

declare dso_local i32 @__isoc99_scanf(i8*, ...) #2

declare dso_local i32 @printf(i8*, ...) #2


!llvm.module.flags = !{!0}
!llvm.ident = !{!1}

!0 = !{i32 1, !"wchar_size", i32 4}
!1 = !{!"clang version 10.0.0-4ubuntu1 "}
